target datalayout = "e-m:e-p270:32:32-p271:32:32-p272:64:64-i64:64-i128:128-f80:128-n8:16:32:64-S128"
target triple = "x86_64-pc-linux-gnu"

%struct._zend_refcounted_h = type { i32, %union.anon }
%union.anon = type { i32 }
%struct._zend_string = type { %struct._zend_refcounted_h, i64, i64, [1 x i8] }

; Function Attrs: nounwind uwtable
define ptr @zend_string_concat3(ptr noundef %0, i64 noundef %1, ptr noundef %2, i64 noundef %3, ptr noundef %4, i64 noundef %5) #0 {
  %7 = alloca ptr, align 8
  %8 = alloca i32, align 4
  %9 = alloca i64, align 8
  %10 = alloca i8, align 1
  %11 = alloca ptr, align 8
  %12 = alloca ptr, align 8
  %13 = alloca i64, align 8
  %14 = alloca ptr, align 8
  %15 = alloca i64, align 8
  %16 = alloca ptr, align 8
  %17 = alloca i64, align 8
  %18 = alloca i64, align 8
  %19 = alloca ptr, align 8
  store ptr %0, ptr %12, align 8
  store i64 %1, ptr %13, align 8
  store ptr %2, ptr %14, align 8
  store i64 %3, ptr %15, align 8
  store ptr %4, ptr %16, align 8
  store i64 %5, ptr %17, align 8
  %20 = load i64, ptr %13, align 8
  %21 = load i64, ptr %15, align 8
  %22 = add i64 %20, %21
  %23 = load i64, ptr %17, align 8
  %24 = add i64 %22, %23
  store i64 %24, ptr %18, align 8
  %25 = load i64, ptr %18, align 8
  store i64 %25, ptr %9, align 8
  store i8 0, ptr %10, align 1
  %26 = load i8, ptr %10, align 1
  %27 = trunc i8 %26 to i1
  br i1 %27, label %28, label %36

28:                                               ; preds = %6
  %29 = load i64, ptr %9, align 8
  %30 = add i64 24, %29
  %31 = add i64 %30, 1
  %32 = add i64 %31, 8
  %33 = sub i64 %32, 1
  %34 = and i64 %33, -8
  %35 = call noalias ptr @__zend_malloc(i64 noundef %34) #9
  br label %440

36:                                               ; preds = %6
  %37 = load i64, ptr %9, align 8
  %38 = add i64 24, %37
  %39 = add i64 %38, 1
  %40 = add i64 %39, 8
  %41 = sub i64 %40, 1
  %42 = and i64 %41, -8
  %43 = call i1 @llvm.is.constant.i64(i64 %42)
  br i1 %43, label %44, label %430

44:                                               ; preds = %36
  %45 = load i64, ptr %9, align 8
  %46 = add i64 24, %45
  %47 = add i64 %46, 1
  %48 = add i64 %47, 8
  %49 = sub i64 %48, 1
  %50 = and i64 %49, -8
  %51 = icmp ule i64 %50, 8
  br i1 %51, label %52, label %54

52:                                               ; preds = %44
  %53 = call noalias ptr @_emalloc_8() #8
  br label %428

54:                                               ; preds = %44
  %55 = load i64, ptr %9, align 8
  %56 = add i64 24, %55
  %57 = add i64 %56, 1
  %58 = add i64 %57, 8
  %59 = sub i64 %58, 1
  %60 = and i64 %59, -8
  %61 = icmp ule i64 %60, 16
  br i1 %61, label %62, label %64

62:                                               ; preds = %54
  %63 = call noalias ptr @_emalloc_16() #8
  br label %426

64:                                               ; preds = %54
  %65 = load i64, ptr %9, align 8
  %66 = add i64 24, %65
  %67 = add i64 %66, 1
  %68 = add i64 %67, 8
  %69 = sub i64 %68, 1
  %70 = and i64 %69, -8
  %71 = icmp ule i64 %70, 24
  br i1 %71, label %72, label %74

72:                                               ; preds = %64
  %73 = call noalias ptr @_emalloc_24() #8
  br label %424

74:                                               ; preds = %64
  %75 = load i64, ptr %9, align 8
  %76 = add i64 24, %75
  %77 = add i64 %76, 1
  %78 = add i64 %77, 8
  %79 = sub i64 %78, 1
  %80 = and i64 %79, -8
  %81 = icmp ule i64 %80, 32
  br i1 %81, label %82, label %84

82:                                               ; preds = %74
  %83 = call noalias ptr @_emalloc_32() #8
  br label %422

84:                                               ; preds = %74
  %85 = load i64, ptr %9, align 8
  %86 = add i64 24, %85
  %87 = add i64 %86, 1
  %88 = add i64 %87, 8
  %89 = sub i64 %88, 1
  %90 = and i64 %89, -8
  %91 = icmp ule i64 %90, 40
  br i1 %91, label %92, label %94

92:                                               ; preds = %84
  %93 = call noalias ptr @_emalloc_40() #8
  br label %420

94:                                               ; preds = %84
  %95 = load i64, ptr %9, align 8
  %96 = add i64 24, %95
  %97 = add i64 %96, 1
  %98 = add i64 %97, 8
  %99 = sub i64 %98, 1
  %100 = and i64 %99, -8
  %101 = icmp ule i64 %100, 48
  br i1 %101, label %102, label %104

102:                                              ; preds = %94
  %103 = call noalias ptr @_emalloc_48() #8
  br label %418

104:                                              ; preds = %94
  %105 = load i64, ptr %9, align 8
  %106 = add i64 24, %105
  %107 = add i64 %106, 1
  %108 = add i64 %107, 8
  %109 = sub i64 %108, 1
  %110 = and i64 %109, -8
  %111 = icmp ule i64 %110, 56
  br i1 %111, label %112, label %114

112:                                              ; preds = %104
  %113 = call noalias ptr @_emalloc_56() #8
  br label %416

114:                                              ; preds = %104
  %115 = load i64, ptr %9, align 8
  %116 = add i64 24, %115
  %117 = add i64 %116, 1
  %118 = add i64 %117, 8
  %119 = sub i64 %118, 1
  %120 = and i64 %119, -8
  %121 = icmp ule i64 %120, 64
  br i1 %121, label %122, label %124

122:                                              ; preds = %114
  %123 = call noalias ptr @_emalloc_64() #8
  br label %414

124:                                              ; preds = %114
  %125 = load i64, ptr %9, align 8
  %126 = add i64 24, %125
  %127 = add i64 %126, 1
  %128 = add i64 %127, 8
  %129 = sub i64 %128, 1
  %130 = and i64 %129, -8
  %131 = icmp ule i64 %130, 80
  br i1 %131, label %132, label %134

132:                                              ; preds = %124
  %133 = call noalias ptr @_emalloc_80() #8
  br label %412

134:                                              ; preds = %124
  %135 = load i64, ptr %9, align 8
  %136 = add i64 24, %135
  %137 = add i64 %136, 1
  %138 = add i64 %137, 8
  %139 = sub i64 %138, 1
  %140 = and i64 %139, -8
  %141 = icmp ule i64 %140, 96
  br i1 %141, label %142, label %144

142:                                              ; preds = %134
  %143 = call noalias ptr @_emalloc_96() #8
  br label %410

144:                                              ; preds = %134
  %145 = load i64, ptr %9, align 8
  %146 = add i64 24, %145
  %147 = add i64 %146, 1
  %148 = add i64 %147, 8
  %149 = sub i64 %148, 1
  %150 = and i64 %149, -8
  %151 = icmp ule i64 %150, 112
  br i1 %151, label %152, label %154

152:                                              ; preds = %144
  %153 = call noalias ptr @_emalloc_112() #8
  br label %408

154:                                              ; preds = %144
  %155 = load i64, ptr %9, align 8
  %156 = add i64 24, %155
  %157 = add i64 %156, 1
  %158 = add i64 %157, 8
  %159 = sub i64 %158, 1
  %160 = and i64 %159, -8
  %161 = icmp ule i64 %160, 128
  br i1 %161, label %162, label %164

162:                                              ; preds = %154
  %163 = call noalias ptr @_emalloc_128() #8
  br label %406

164:                                              ; preds = %154
  %165 = load i64, ptr %9, align 8
  %166 = add i64 24, %165
  %167 = add i64 %166, 1
  %168 = add i64 %167, 8
  %169 = sub i64 %168, 1
  %170 = and i64 %169, -8
  %171 = icmp ule i64 %170, 160
  br i1 %171, label %172, label %174

172:                                              ; preds = %164
  %173 = call noalias ptr @_emalloc_160() #8
  br label %404

174:                                              ; preds = %164
  %175 = load i64, ptr %9, align 8
  %176 = add i64 24, %175
  %177 = add i64 %176, 1
  %178 = add i64 %177, 8
  %179 = sub i64 %178, 1
  %180 = and i64 %179, -8
  %181 = icmp ule i64 %180, 192
  br i1 %181, label %182, label %184

182:                                              ; preds = %174
  %183 = call noalias ptr @_emalloc_192() #8
  br label %402

184:                                              ; preds = %174
  %185 = load i64, ptr %9, align 8
  %186 = add i64 24, %185
  %187 = add i64 %186, 1
  %188 = add i64 %187, 8
  %189 = sub i64 %188, 1
  %190 = and i64 %189, -8
  %191 = icmp ule i64 %190, 224
  br i1 %191, label %192, label %194

192:                                              ; preds = %184
  %193 = call noalias ptr @_emalloc_224() #8
  br label %400

194:                                              ; preds = %184
  %195 = load i64, ptr %9, align 8
  %196 = add i64 24, %195
  %197 = add i64 %196, 1
  %198 = add i64 %197, 8
  %199 = sub i64 %198, 1
  %200 = and i64 %199, -8
  %201 = icmp ule i64 %200, 256
  br i1 %201, label %202, label %204

202:                                              ; preds = %194
  %203 = call noalias ptr @_emalloc_256() #8
  br label %398

204:                                              ; preds = %194
  %205 = load i64, ptr %9, align 8
  %206 = add i64 24, %205
  %207 = add i64 %206, 1
  %208 = add i64 %207, 8
  %209 = sub i64 %208, 1
  %210 = and i64 %209, -8
  %211 = icmp ule i64 %210, 320
  br i1 %211, label %212, label %214

212:                                              ; preds = %204
  %213 = call noalias ptr @_emalloc_320() #8
  br label %396

214:                                              ; preds = %204
  %215 = load i64, ptr %9, align 8
  %216 = add i64 24, %215
  %217 = add i64 %216, 1
  %218 = add i64 %217, 8
  %219 = sub i64 %218, 1
  %220 = and i64 %219, -8
  %221 = icmp ule i64 %220, 384
  br i1 %221, label %222, label %224

222:                                              ; preds = %214
  %223 = call noalias ptr @_emalloc_384() #8
  br label %394

224:                                              ; preds = %214
  %225 = load i64, ptr %9, align 8
  %226 = add i64 24, %225
  %227 = add i64 %226, 1
  %228 = add i64 %227, 8
  %229 = sub i64 %228, 1
  %230 = and i64 %229, -8
  %231 = icmp ule i64 %230, 448
  br i1 %231, label %232, label %234

232:                                              ; preds = %224
  %233 = call noalias ptr @_emalloc_448() #8
  br label %392

234:                                              ; preds = %224
  %235 = load i64, ptr %9, align 8
  %236 = add i64 24, %235
  %237 = add i64 %236, 1
  %238 = add i64 %237, 8
  %239 = sub i64 %238, 1
  %240 = and i64 %239, -8
  %241 = icmp ule i64 %240, 512
  br i1 %241, label %242, label %244

242:                                              ; preds = %234
  %243 = call noalias ptr @_emalloc_512() #8
  br label %390

244:                                              ; preds = %234
  %245 = load i64, ptr %9, align 8
  %246 = add i64 24, %245
  %247 = add i64 %246, 1
  %248 = add i64 %247, 8
  %249 = sub i64 %248, 1
  %250 = and i64 %249, -8
  %251 = icmp ule i64 %250, 640
  br i1 %251, label %252, label %254

252:                                              ; preds = %244
  %253 = call noalias ptr @_emalloc_640() #8
  br label %388

254:                                              ; preds = %244
  %255 = load i64, ptr %9, align 8
  %256 = add i64 24, %255
  %257 = add i64 %256, 1
  %258 = add i64 %257, 8
  %259 = sub i64 %258, 1
  %260 = and i64 %259, -8
  %261 = icmp ule i64 %260, 768
  br i1 %261, label %262, label %264

262:                                              ; preds = %254
  %263 = call noalias ptr @_emalloc_768() #8
  br label %386

264:                                              ; preds = %254
  %265 = load i64, ptr %9, align 8
  %266 = add i64 24, %265
  %267 = add i64 %266, 1
  %268 = add i64 %267, 8
  %269 = sub i64 %268, 1
  %270 = and i64 %269, -8
  %271 = icmp ule i64 %270, 896
  br i1 %271, label %272, label %274

272:                                              ; preds = %264
  %273 = call noalias ptr @_emalloc_896() #8
  br label %384

274:                                              ; preds = %264
  %275 = load i64, ptr %9, align 8
  %276 = add i64 24, %275
  %277 = add i64 %276, 1
  %278 = add i64 %277, 8
  %279 = sub i64 %278, 1
  %280 = and i64 %279, -8
  %281 = icmp ule i64 %280, 1024
  br i1 %281, label %282, label %284

282:                                              ; preds = %274
  %283 = call noalias ptr @_emalloc_1024() #8
  br label %382

284:                                              ; preds = %274
  %285 = load i64, ptr %9, align 8
  %286 = add i64 24, %285
  %287 = add i64 %286, 1
  %288 = add i64 %287, 8
  %289 = sub i64 %288, 1
  %290 = and i64 %289, -8
  %291 = icmp ule i64 %290, 1280
  br i1 %291, label %292, label %294

292:                                              ; preds = %284
  %293 = call noalias ptr @_emalloc_1280() #8
  br label %380

294:                                              ; preds = %284
  %295 = load i64, ptr %9, align 8
  %296 = add i64 24, %295
  %297 = add i64 %296, 1
  %298 = add i64 %297, 8
  %299 = sub i64 %298, 1
  %300 = and i64 %299, -8
  %301 = icmp ule i64 %300, 1536
  br i1 %301, label %302, label %304

302:                                              ; preds = %294
  %303 = call noalias ptr @_emalloc_1536() #8
  br label %378

304:                                              ; preds = %294
  %305 = load i64, ptr %9, align 8
  %306 = add i64 24, %305
  %307 = add i64 %306, 1
  %308 = add i64 %307, 8
  %309 = sub i64 %308, 1
  %310 = and i64 %309, -8
  %311 = icmp ule i64 %310, 1792
  br i1 %311, label %312, label %314

312:                                              ; preds = %304
  %313 = call noalias ptr @_emalloc_1792() #8
  br label %376

314:                                              ; preds = %304
  %315 = load i64, ptr %9, align 8
  %316 = add i64 24, %315
  %317 = add i64 %316, 1
  %318 = add i64 %317, 8
  %319 = sub i64 %318, 1
  %320 = and i64 %319, -8
  %321 = icmp ule i64 %320, 2048
  br i1 %321, label %322, label %324

322:                                              ; preds = %314
  %323 = call noalias ptr @_emalloc_2048() #8
  br label %374

324:                                              ; preds = %314
  %325 = load i64, ptr %9, align 8
  %326 = add i64 24, %325
  %327 = add i64 %326, 1
  %328 = add i64 %327, 8
  %329 = sub i64 %328, 1
  %330 = and i64 %329, -8
  %331 = icmp ule i64 %330, 2560
  br i1 %331, label %332, label %334

332:                                              ; preds = %324
  %333 = call noalias ptr @_emalloc_2560() #8
  br label %372

334:                                              ; preds = %324
  %335 = load i64, ptr %9, align 8
  %336 = add i64 24, %335
  %337 = add i64 %336, 1
  %338 = add i64 %337, 8
  %339 = sub i64 %338, 1
  %340 = and i64 %339, -8
  %341 = icmp ule i64 %340, 3072
  br i1 %341, label %342, label %344

342:                                              ; preds = %334
  %343 = call noalias ptr @_emalloc_3072() #8
  br label %370

344:                                              ; preds = %334
  %345 = load i64, ptr %9, align 8
  %346 = add i64 24, %345
  %347 = add i64 %346, 1
  %348 = add i64 %347, 8
  %349 = sub i64 %348, 1
  %350 = and i64 %349, -8
  %351 = icmp ule i64 %350, 2093056
  br i1 %351, label %352, label %360

352:                                              ; preds = %344
  %353 = load i64, ptr %9, align 8
  %354 = add i64 24, %353
  %355 = add i64 %354, 1
  %356 = add i64 %355, 8
  %357 = sub i64 %356, 1
  %358 = and i64 %357, -8
  %359 = call noalias ptr @_emalloc_large(i64 noundef %358) #9
  br label %368

360:                                              ; preds = %344
  %361 = load i64, ptr %9, align 8
  %362 = add i64 24, %361
  %363 = add i64 %362, 1
  %364 = add i64 %363, 8
  %365 = sub i64 %364, 1
  %366 = and i64 %365, -8
  %367 = call noalias ptr @_emalloc_huge(i64 noundef %366) #9
  br label %368

368:                                              ; preds = %360, %352
  %369 = phi ptr [ %359, %352 ], [ %367, %360 ]
  br label %370

370:                                              ; preds = %368, %342
  %371 = phi ptr [ %343, %342 ], [ %369, %368 ]
  br label %372

372:                                              ; preds = %370, %332
  %373 = phi ptr [ %333, %332 ], [ %371, %370 ]
  br label %374

374:                                              ; preds = %372, %322
  %375 = phi ptr [ %323, %322 ], [ %373, %372 ]
  br label %376

376:                                              ; preds = %374, %312
  %377 = phi ptr [ %313, %312 ], [ %375, %374 ]
  br label %378

378:                                              ; preds = %376, %302
  %379 = phi ptr [ %303, %302 ], [ %377, %376 ]
  br label %380

380:                                              ; preds = %378, %292
  %381 = phi ptr [ %293, %292 ], [ %379, %378 ]
  br label %382

382:                                              ; preds = %380, %282
  %383 = phi ptr [ %283, %282 ], [ %381, %380 ]
  br label %384

384:                                              ; preds = %382, %272
  %385 = phi ptr [ %273, %272 ], [ %383, %382 ]
  br label %386

386:                                              ; preds = %384, %262
  %387 = phi ptr [ %263, %262 ], [ %385, %384 ]
  br label %388

388:                                              ; preds = %386, %252
  %389 = phi ptr [ %253, %252 ], [ %387, %386 ]
  br label %390

390:                                              ; preds = %388, %242
  %391 = phi ptr [ %243, %242 ], [ %389, %388 ]
  br label %392

392:                                              ; preds = %390, %232
  %393 = phi ptr [ %233, %232 ], [ %391, %390 ]
  br label %394

394:                                              ; preds = %392, %222
  %395 = phi ptr [ %223, %222 ], [ %393, %392 ]
  br label %396

396:                                              ; preds = %394, %212
  %397 = phi ptr [ %213, %212 ], [ %395, %394 ]
  br label %398

398:                                              ; preds = %396, %202
  %399 = phi ptr [ %203, %202 ], [ %397, %396 ]
  br label %400

400:                                              ; preds = %398, %192
  %401 = phi ptr [ %193, %192 ], [ %399, %398 ]
  br label %402

402:                                              ; preds = %400, %182
  %403 = phi ptr [ %183, %182 ], [ %401, %400 ]
  br label %404

404:                                              ; preds = %402, %172
  %405 = phi ptr [ %173, %172 ], [ %403, %402 ]
  br label %406

406:                                              ; preds = %404, %162
  %407 = phi ptr [ %163, %162 ], [ %405, %404 ]
  br label %408

408:                                              ; preds = %406, %152
  %409 = phi ptr [ %153, %152 ], [ %407, %406 ]
  br label %410

410:                                              ; preds = %408, %142
  %411 = phi ptr [ %143, %142 ], [ %409, %408 ]
  br label %412

412:                                              ; preds = %410, %132
  %413 = phi ptr [ %133, %132 ], [ %411, %410 ]
  br label %414

414:                                              ; preds = %412, %122
  %415 = phi ptr [ %123, %122 ], [ %413, %412 ]
  br label %416

416:                                              ; preds = %414, %112
  %417 = phi ptr [ %113, %112 ], [ %415, %414 ]
  br label %418

418:                                              ; preds = %416, %102
  %419 = phi ptr [ %103, %102 ], [ %417, %416 ]
  br label %420

420:                                              ; preds = %418, %92
  %421 = phi ptr [ %93, %92 ], [ %419, %418 ]
  br label %422

422:                                              ; preds = %420, %82
  %423 = phi ptr [ %83, %82 ], [ %421, %420 ]
  br label %424

424:                                              ; preds = %422, %72
  %425 = phi ptr [ %73, %72 ], [ %423, %422 ]
  br label %426

426:                                              ; preds = %424, %62
  %427 = phi ptr [ %63, %62 ], [ %425, %424 ]
  br label %428

428:                                              ; preds = %426, %52
  %429 = phi ptr [ %53, %52 ], [ %427, %426 ]
  br label %438

430:                                              ; preds = %36
  %431 = load i64, ptr %9, align 8
  %432 = add i64 24, %431
  %433 = add i64 %432, 1
  %434 = add i64 %433, 8
  %435 = sub i64 %434, 1
  %436 = and i64 %435, -8
  %437 = call noalias ptr @_emalloc(i64 noundef %436) #9
  br label %438

438:                                              ; preds = %430, %428
  %439 = phi ptr [ %429, %428 ], [ %437, %430 ]
  br label %440

440:                                              ; preds = %438, %28
  %441 = phi ptr [ %35, %28 ], [ %439, %438 ]
  store ptr %441, ptr %11, align 8
  %442 = load ptr, ptr %11, align 8
  store ptr %442, ptr %7, align 8
  store i32 1, ptr %8, align 4
  %443 = load i32, ptr %8, align 4
  %444 = load ptr, ptr %7, align 8
  store i32 %443, ptr %444, align 4
  %445 = load i8, ptr %10, align 1
  %446 = trunc i8 %445 to i1
  %447 = select i1 %446, i32 128, i32 0
  %448 = or i32 22, %447
  %449 = load ptr, ptr %11, align 8
  %450 = getelementptr inbounds %struct._zend_refcounted_h, ptr %449, i32 0, i32 1
  store i32 %448, ptr %450, align 4
  %451 = load ptr, ptr %11, align 8
  %452 = getelementptr inbounds %struct._zend_string, ptr %451, i32 0, i32 1
  store i64 0, ptr %452, align 8
  %453 = load i64, ptr %9, align 8
  %454 = load ptr, ptr %11, align 8
  %455 = getelementptr inbounds %struct._zend_string, ptr %454, i32 0, i32 2
  store i64 %453, ptr %455, align 8
  %456 = load ptr, ptr %11, align 8
  store ptr %456, ptr %19, align 8
  %457 = load ptr, ptr %19, align 8
  %458 = getelementptr inbounds %struct._zend_string, ptr %457, i32 0, i32 3
  %459 = getelementptr inbounds [1 x i8], ptr %458, i64 0, i64 0
  %460 = load ptr, ptr %12, align 8
  %461 = load i64, ptr %13, align 8
  call void @llvm.memcpy.p0.p0.i64(ptr align 8 %459, ptr align 1 %460, i64 %461, i1 false)
  %462 = load ptr, ptr %19, align 8
  %463 = getelementptr inbounds %struct._zend_string, ptr %462, i32 0, i32 3
  %464 = getelementptr inbounds [1 x i8], ptr %463, i64 0, i64 0
  %465 = load i64, ptr %13, align 8
  %466 = getelementptr inbounds i8, ptr %464, i64 %465
  %467 = load ptr, ptr %14, align 8
  %468 = load i64, ptr %15, align 8
  call void @llvm.memcpy.p0.p0.i64(ptr align 1 %466, ptr align 1 %467, i64 %468, i1 false)
  %469 = load ptr, ptr %19, align 8
  %470 = getelementptr inbounds %struct._zend_string, ptr %469, i32 0, i32 3
  %471 = getelementptr inbounds [1 x i8], ptr %470, i64 0, i64 0
  %472 = load i64, ptr %13, align 8
  %473 = getelementptr inbounds i8, ptr %471, i64 %472
  %474 = load i64, ptr %15, align 8
  %475 = getelementptr inbounds i8, ptr %473, i64 %474
  %476 = load ptr, ptr %16, align 8
  %477 = load i64, ptr %17, align 8
  call void @llvm.memcpy.p0.p0.i64(ptr align 1 %475, ptr align 1 %476, i64 %477, i1 false)
  %478 = load ptr, ptr %19, align 8
  %479 = getelementptr inbounds %struct._zend_string, ptr %478, i32 0, i32 3
  %480 = load i64, ptr %18, align 8
  %481 = getelementptr inbounds [1 x i8], ptr %479, i64 0, i64 %480
  store i8 0, ptr %481, align 1
  %482 = load ptr, ptr %19, align 8
  ret ptr %482
}