; Function Attrs: nounwind uwtable
define noalias noundef ptr @zend_string_concat3(ptr nocapture noundef readonly %0, i64 noundef %1, ptr nocapture noundef readonly %2, i64 noundef %3, ptr nocapture noundef readonly %4, i64 noundef %5) local_unnamed_addr #2 {
  %7 = add i64 %3, %1
  %8 = add i64 %7, %5
  %9 = and i64 %8, -8
  %10 = add i64 %9, 32
  %11 = tail call noalias ptr @_emalloc(i64 noundef %10) #17
  store i32 1, ptr %11, align 4
  %12 = getelementptr inbounds i8, ptr %11, i64 4
  store i32 22, ptr %12, align 4
  %13 = getelementptr inbounds i8, ptr %11, i64 8
  store i64 0, ptr %13, align 8
  %14 = getelementptr inbounds i8, ptr %11, i64 16
  store i64 %8, ptr %14, align 8
  %15 = getelementptr inbounds i8, ptr %11, i64 24
  tail call void @llvm.memcpy.p0.p0.i64(ptr nonnull align 8 %15, ptr align 1 %0, i64 %1, i1 false)
  %16 = getelementptr inbounds i8, ptr %15, i64 %1
  tail call void @llvm.memcpy.p0.p0.i64(ptr nonnull align 1 %16, ptr align 1 %2, i64 %3, i1 false)
  %17 = getelementptr inbounds i8, ptr %16, i64 %3
  tail call void @llvm.memcpy.p0.p0.i64(ptr nonnull align 1 %17, ptr align 1 %4, i64 %5, i1 false)
  %18 = getelementptr inbounds [1 x i8], ptr %15, i64 0, i64 %8
  store i8 0, ptr %18, align 1
  ret ptr %11
}